; Function Attrs: nounwind uwtable
define dso_local i32 @LZ4_compress_HC_continue(ptr noundef %0, ptr noundef %1, ptr noundef %2, i32 noundef %3, i32 noundef %4) local_unnamed_addr #4 {
  %6 = alloca i32, align 4
  store i32 %3, ptr %6, align 4, !tbaa !17
  %7 = tail call i32 @LZ4_compressBound(i32 noundef %3) #18
  %8 = icmp slt i32 %4, %7
  %. = zext i1 %8 to i32
  %9 = call fastcc i32 @LZ4_compressHC_continue_generic(ptr noundef %0, ptr noundef %1, ptr noundef %2, ptr noundef nonnull %6, i32 noundef %4, i32 noundef %.)
  ret i32 %9
}